target datalayout = "e-m:e-p270:32:32-p271:32:32-p272:64:64-i64:64-i128:128-f80:128-n8:16:32:64-S128"
target triple = "x86_64-pc-linux-gnu"

%struct.dt_pthread_mutex_t = type { %union.pthread_mutex_t }
%union.pthread_mutex_t = type { %struct.__pthread_mutex_s }
%struct.__pthread_mutex_s = type { i32, i32, i32, i32, i32, i16, i16, %struct.__pthread_internal_list }
%struct.__pthread_internal_list = type { ptr, ptr }
%struct.dt_iop_module_t = type { i32, ptr, ptr, ptr, ptr, ptr, ptr, ptr, ptr, ptr, ptr, ptr, ptr, ptr, ptr, ptr, ptr, ptr, ptr, ptr, ptr, ptr, ptr, ptr, ptr, ptr, ptr, ptr, ptr, ptr, ptr, ptr, ptr, ptr, ptr, ptr, ptr, ptr, ptr, ptr, ptr, ptr, ptr, ptr, ptr, ptr, ptr, ptr, ptr, ptr, ptr, ptr, ptr, ptr, ptr, ptr, ptr, [20 x i8], i32, i32, i32, i32, i32, i32, i32, [8 x i8], [4 x float], [4 x float], [4 x float], [4 x float], [4 x float], [4 x float], ptr, %struct.dt_dev_histogram_stats_t, [4 x i32], i32, i32, ptr, i32, i32, ptr, ptr, i32, ptr, %struct.dt_pthread_mutex_t, ptr, ptr, ptr, ptr, %struct.anon.1, ptr, ptr, ptr, ptr, ptr, ptr, ptr, i32, ptr, ptr, ptr, ptr, ptr, ptr, ptr, i32, ptr, i32, [128 x i8], i32, ptr, ptr, i32, [12 x i8] }
%struct.dt_dev_histogram_stats_t = type { i32, i64, i32, i32 }
%struct.anon.1 = type { %struct.anon.2, %struct.anon.3 }
%struct.anon.2 = type { ptr, ptr }
%struct.anon.3 = type { ptr, i32 }

; Function Attrs: nounwind uwtable
define i32 @dt_develop_blend_version() #0 {
  ret i32 13
}

; Function Attrs: nounwind uwtable
define i32 @dt_develop_blend_legacy_params_from_so(ptr noundef %0, ptr noundef %1, i32 noundef %2, ptr noundef %3, i32 noundef %4, i32 noundef %5) #0 {
  %7 = alloca i32, align 4
  %8 = alloca ptr, align 8
  %9 = alloca ptr, align 8
  %10 = alloca i32, align 4
  %11 = alloca ptr, align 8
  %12 = alloca i32, align 4
  %13 = alloca i32, align 4
  %14 = alloca ptr, align 8
  %15 = alloca i32, align 4
  %16 = alloca i32, align 4
  store ptr %0, ptr %8, align 8, !tbaa !159
  store ptr %1, ptr %9, align 8, !tbaa !83
  store i32 %2, ptr %10, align 4, !tbaa !11
  store ptr %3, ptr %11, align 8, !tbaa !83
  store i32 %4, ptr %12, align 4, !tbaa !11
  store i32 %5, ptr %13, align 4, !tbaa !11
  call void @llvm.lifetime.start.p0(i64 8, ptr %14) #10
  %17 = call noalias ptr @calloc(i64 noundef 1, i64 noundef 1120) #11
  store ptr %17, ptr %14, align 8, !tbaa !6
  %18 = load ptr, ptr %14, align 8, !tbaa !6
  %19 = load ptr, ptr %8, align 8, !tbaa !159
  %20 = call i32 @dt_iop_load_module_by_so(ptr noundef %18, ptr noundef %19, ptr noundef null)
  %21 = icmp ne i32 %20, 0
  br i1 %21, label %22, label %24

22:                                               ; preds = %6
  %23 = load ptr, ptr %14, align 8, !tbaa !6
  call void @free(ptr noundef %23) #10
  store i32 1, ptr %7, align 4
  store i32 1, ptr %15, align 4
  br label %43

24:                                               ; preds = %6
  %25 = load ptr, ptr %14, align 8, !tbaa !6
  %26 = getelementptr inbounds nuw %struct.dt_iop_module_t, ptr %25, i32 0, i32 82
  %27 = load i32, ptr %26, align 8, !tbaa !289
  %28 = icmp eq i32 %27, 0
  br i1 %28, label %29, label %32

29:                                               ; preds = %24
  %30 = load ptr, ptr %14, align 8, !tbaa !6
  call void @dt_iop_cleanup_module(ptr noundef %30)
  %31 = load ptr, ptr %14, align 8, !tbaa !6
  call void @free(ptr noundef %31) #10
  store i32 1, ptr %7, align 4
  store i32 1, ptr %15, align 4
  br label %43

32:                                               ; preds = %24
  call void @llvm.lifetime.start.p0(i64 4, ptr %16) #10
  %33 = load ptr, ptr %14, align 8, !tbaa !6
  %34 = load ptr, ptr %9, align 8, !tbaa !83
  %35 = load i32, ptr %10, align 4, !tbaa !11
  %36 = load ptr, ptr %11, align 8, !tbaa !83
  %37 = call i32 @dt_develop_blend_version()
  %38 = load i32, ptr %13, align 4, !tbaa !11
  %39 = call i32 @dt_develop_blend_legacy_params(ptr noundef %33, ptr noundef %34, i32 noundef %35, ptr noundef %36, i32 noundef %37, i32 noundef %38)
  store i32 %39, ptr %16, align 4, !tbaa !11
  %40 = load ptr, ptr %14, align 8, !tbaa !6
  call void @dt_iop_cleanup_module(ptr noundef %40)
  %41 = load ptr, ptr %14, align 8, !tbaa !6
  call void @free(ptr noundef %41) #10
  %42 = load i32, ptr %16, align 4, !tbaa !11
  store i32 %42, ptr %7, align 4
  store i32 1, ptr %15, align 4
  call void @llvm.lifetime.end.p0(i64 4, ptr %16) #10
  br label %43

43:                                               ; preds = %32, %29, %22
  call void @llvm.lifetime.end.p0(i64 8, ptr %14) #10
  %44 = load i32, ptr %7, align 4
  ret i32 %44
}