; Function Attrs: nounwind uwtable
define range(i32 0, 2) i32 @dt_develop_blend_legacy_params_from_so(ptr noundef %0, ptr noundef %1, i32 noundef %2, ptr noundef %3, i32 noundef %4, i32 noundef %5) local_unnamed_addr #0 {
  %7 = tail call noalias dereferenceable_or_null(1120) ptr @calloc(i64 noundef 1, i64 noundef 1120) #18
  %8 = tail call i32 @dt_iop_load_module_by_so(ptr noundef %7, ptr noundef %0, ptr noundef null) #17
  %.not = icmp eq i32 %8, 0
  br i1 %.not, label %9, label %15

9:                                                ; preds = %6
  %10 = getelementptr inbounds nuw i8, ptr %7, i64 696
  %11 = load i32, ptr %10, align 8, !tbaa !252
  %12 = icmp eq i32 %11, 0
  br i1 %12, label %.sink.split, label %13

13:                                               ; preds = %9
  %14 = tail call i32 @dt_develop_blend_legacy_params(ptr noundef nonnull %7, ptr noundef %1, i32 noundef %2, ptr noundef %3, i32 noundef 13, i32 noundef %5)
  br label %.sink.split

.sink.split:                                      ; preds = %9, %13
  %.0.ph = phi i32 [ %14, %13 ], [ 1, %9 ]
  tail call void @dt_iop_cleanup_module(ptr noundef nonnull %7) #17
  br label %15

15:                                               ; preds = %.sink.split, %6
  %.0 = phi i32 [ 1, %6 ], [ %.0.ph, %.sink.split ]
  tail call void @free(ptr noundef %7) #17
  ret i32 %.0
}